; Function Attrs: mustprogress uwtable
define noundef zeroext i1 @_ZNK32pxrInternal_v0_24__pxrReserved__28PcpExpressionVariablesSourceeqERKS0_(ptr noundef nonnull readonly align 8 dereferenceable(16) %0, ptr noundef nonnull readonly align 8 dereferenceable(16) %1) local_unnamed_addr #1 align 2 {
  %3 = icmp eq ptr %0, %1
  br i1 %3, label %14, label %4

4:                                                ; preds = %2
  %5 = load ptr, ptr %0, align 8
  %6 = icmp ne ptr %5, null
  %7 = load ptr, ptr %1, align 8
  %8 = icmp ne ptr %7, null
  %brmerge.demorgan = and i1 %6, %8
  br i1 %brmerge.demorgan, label %9, label %11

9:                                                ; preds = %4
  %10 = tail call noundef zeroext i1 @_ZNK32pxrInternal_v0_24__pxrReserved__23PcpLayerStackIdentifiereqERKS0_(ptr noundef nonnull align 8 dereferenceable(80) %5, ptr noundef nonnull align 8 dereferenceable(80) %7)
  br label %14

11:                                               ; preds = %4
  %12 = xor i1 %6, %8
  %13 = xor i1 %12, true
  br label %14

14:                                               ; preds = %2, %11, %9
  %.0 = phi i1 [ %10, %9 ], [ %13, %11 ], [ true, %2 ]
  ret i1 %.0
}